target datalayout = "e-m:e-p270:32:32-p271:32:32-p272:64:64-i64:64-i128:128-f80:128-n8:16:32:64-S128"
target triple = "x86_64-unknown-linux-gnu"

; Function Attrs: mustprogress nounwind uwtable
define hidden noundef zeroext i16 @_Z24bcdec__finish_unquantizeii(i32 noundef %val, i32 noundef %isSigned) #4 {
entry:
  %retval = alloca i16, align 2
  %val.addr = alloca i32, align 4
  %isSigned.addr = alloca i32, align 4
  %s = alloca i32, align 4
  store i32 %val, ptr %val.addr, align 4
  store i32 %isSigned, ptr %isSigned.addr, align 4
  %0 = load i32, ptr %isSigned.addr, align 4
  %tobool = icmp ne i32 %0, 0
  br i1 %tobool, label %if.else, label %if.then

if.then:                                          ; preds = %entry
  %1 = load i32, ptr %val.addr, align 4
  %mul = mul nsw i32 %1, 31
  %shr = ashr i32 %mul, 6
  %conv = trunc i32 %shr to i16
  store i16 %conv, ptr %retval, align 2
  br label %return

if.else:                                          ; preds = %entry
  %2 = load i32, ptr %val.addr, align 4
  %cmp = icmp slt i32 %2, 0
  br i1 %cmp, label %cond.true, label %cond.false

cond.true:                                        ; preds = %if.else
  %3 = load i32, ptr %val.addr, align 4
  %sub = sub nsw i32 0, %3
  %mul1 = mul nsw i32 %sub, 31
  %shr2 = ashr i32 %mul1, 5
  %sub3 = sub nsw i32 0, %shr2
  br label %cond.end

cond.false:                                       ; preds = %if.else
  %4 = load i32, ptr %val.addr, align 4
  %mul4 = mul nsw i32 %4, 31
  %shr5 = ashr i32 %mul4, 5
  br label %cond.end

cond.end:                                         ; preds = %cond.false, %cond.true
  %cond = phi i32 [ %sub3, %cond.true ], [ %shr5, %cond.false ]
  store i32 %cond, ptr %val.addr, align 4
  store i32 0, ptr %s, align 4
  %5 = load i32, ptr %val.addr, align 4
  %cmp6 = icmp slt i32 %5, 0
  br i1 %cmp6, label %if.then7, label %if.end

if.then7:                                         ; preds = %cond.end
  store i32 32768, ptr %s, align 4
  %6 = load i32, ptr %val.addr, align 4
  %sub8 = sub nsw i32 0, %6
  store i32 %sub8, ptr %val.addr, align 4
  br label %if.end

if.end:                                           ; preds = %if.then7, %cond.end
  %7 = load i32, ptr %s, align 4
  %8 = load i32, ptr %val.addr, align 4
  %or = or i32 %7, %8
  %conv9 = trunc i32 %or to i16
  store i16 %conv9, ptr %retval, align 2
  br label %return

return:                                           ; preds = %if.end, %if.then
  %9 = load i16, ptr %retval, align 2
  ret i16 %9
}