; Function Attrs: mustprogress nofree norecurse nosync nounwind willreturn memory(none) uwtable
define hidden noundef zeroext i16 @_Z24bcdec__finish_unquantizeii(i32 noundef %val, i32 noundef %isSigned) local_unnamed_addr #8 {
entry:
  %tobool.not = icmp eq i32 %isSigned, 0
  br i1 %tobool.not, label %if.then, label %if.else

if.then:                                          ; preds = %entry
  %mul = mul nsw i32 %val, 31
  %shr = lshr i32 %mul, 6
  br label %return

if.else:                                          ; preds = %entry
  %cmp = icmp slt i32 %val, 0
  br i1 %cmp, label %cond.true, label %cond.false

cond.true:                                        ; preds = %if.else
  %mul1 = mul i32 %val, -31
  %shr2 = ashr i32 %mul1, 5
  %sub3 = sub nsw i32 0, %shr2
  br label %cond.end

cond.false:                                       ; preds = %if.else
  %mul4 = mul nsw i32 %val, 31
  %shr5 = lshr i32 %mul4, 5
  br label %cond.end

cond.end:                                         ; preds = %cond.false, %cond.true
  %cond = phi i32 [ %sub3, %cond.true ], [ %shr5, %cond.false ]
  %spec.select = tail call i32 @llvm.abs.i32(i32 %cond, i1 true)
  %0 = lshr i32 %cond, 16
  %spec.select7 = and i32 %0, 32768
  %or = or i32 %spec.select7, %spec.select
  br label %return

return:                                           ; preds = %cond.end, %if.then
  %retval.0.in = phi i32 [ %or, %cond.end ], [ %shr, %if.then ]
  %retval.0 = trunc i32 %retval.0.in to i16
  ret i16 %retval.0
}